target datalayout = "e-m:e-p270:32:32-p271:32:32-p272:64:64-i64:64-i128:128-f80:128-n8:16:32:64-S128"
target triple = "x86_64-pc-linux-gnu"

; Function Attrs: inlinehint nounwind uwtable
define internal i64 @ossl_quic_vlint_encode_len(i64 noundef %0) #3 {
  %2 = alloca i64, align 8
  %3 = alloca i64, align 8
  store i64 %0, ptr %3, align 8, !tbaa !8
  %4 = load i64, ptr %3, align 8, !tbaa !8
  %5 = icmp ult i64 %4, 64
  br i1 %5, label %6, label %7

6:                                                ; preds = %1
  store i64 1, ptr %2, align 8
  br label %20

7:                                                ; preds = %1
  %8 = load i64, ptr %3, align 8, !tbaa !8
  %9 = icmp ult i64 %8, 16384
  br i1 %9, label %10, label %11

10:                                               ; preds = %7
  store i64 2, ptr %2, align 8
  br label %20

11:                                               ; preds = %7
  %12 = load i64, ptr %3, align 8, !tbaa !8
  %13 = icmp ult i64 %12, 1073741824
  br i1 %13, label %14, label %15

14:                                               ; preds = %11
  store i64 4, ptr %2, align 8
  br label %20

15:                                               ; preds = %11
  %16 = load i64, ptr %3, align 8, !tbaa !8
  %17 = icmp ule i64 %16, 4611686018427387903
  br i1 %17, label %18, label %19

18:                                               ; preds = %15
  store i64 8, ptr %2, align 8
  br label %20

19:                                               ; preds = %15
  store i64 0, ptr %2, align 8
  br label %20

20:                                               ; preds = %19, %18, %14, %10, %6
  %21 = load i64, ptr %2, align 8
  ret i64 %21
}

; Function Attrs: nounwind uwtable
define i32 @ossl_quic_wire_encode_transport_param_int(ptr noundef %0, i64 noundef %1, i64 noundef %2) #0 {
  %4 = alloca i32, align 4
  %5 = alloca ptr, align 8
  %6 = alloca i64, align 8
  %7 = alloca i64, align 8
  store ptr %0, ptr %5, align 8, !tbaa !21
  store i64 %1, ptr %6, align 8, !tbaa !8
  store i64 %2, ptr %7, align 8, !tbaa !8
  %8 = load ptr, ptr %5, align 8, !tbaa !21
  %9 = load i64, ptr %6, align 8, !tbaa !8
  %10 = call i32 @WPACKET_quic_write_vlint(ptr noundef %8, i64 noundef %9)
  %11 = icmp ne i32 %10, 0
  br i1 %11, label %12, label %23

12:                                               ; preds = %3
  %13 = load ptr, ptr %5, align 8, !tbaa !21
  %14 = load i64, ptr %7, align 8, !tbaa !8
  %15 = call i64 @ossl_quic_vlint_encode_len(i64 noundef %14)
  %16 = call i32 @WPACKET_quic_write_vlint(ptr noundef %13, i64 noundef %15)
  %17 = icmp ne i32 %16, 0
  br i1 %17, label %18, label %23

18:                                               ; preds = %12
  %19 = load ptr, ptr %5, align 8, !tbaa !21
  %20 = load i64, ptr %7, align 8, !tbaa !8
  %21 = call i32 @WPACKET_quic_write_vlint(ptr noundef %19, i64 noundef %20)
  %22 = icmp ne i32 %21, 0
  br i1 %22, label %24, label %23

23:                                               ; preds = %18, %12, %3
  store i32 0, ptr %4, align 4
  br label %25

24:                                               ; preds = %18
  store i32 1, ptr %4, align 4
  br label %25

25:                                               ; preds = %24, %23
  %26 = load i32, ptr %4, align 4
  ret i32 %26
}