; Function Attrs: nounwind uwtable
define range(i32 0, 2) i32 @ossl_quic_wire_encode_transport_param_int(ptr noundef %0, i64 noundef %1, i64 noundef %2) local_unnamed_addr #2 {
  %4 = tail call i32 @WPACKET_quic_write_vlint(ptr noundef %0, i64 noundef %1) #12
  %.not = icmp eq i32 %4, 0
  br i1 %.not, label %16, label %5

5:                                                ; preds = %3
  %6 = icmp ult i64 %2, 64
  br i1 %6, label %ossl_quic_vlint_encode_len.exit, label %7

7:                                                ; preds = %5
  %8 = icmp ult i64 %2, 16384
  br i1 %8, label %ossl_quic_vlint_encode_len.exit, label %9

9:                                                ; preds = %7
  %10 = icmp ult i64 %2, 1073741824
  br i1 %10, label %ossl_quic_vlint_encode_len.exit, label %11

11:                                               ; preds = %9
  %12 = icmp ult i64 %2, 4611686018427387904
  %..i = select i1 %12, i64 8, i64 0
  br label %ossl_quic_vlint_encode_len.exit

ossl_quic_vlint_encode_len.exit:                  ; preds = %5, %7, %9, %11
  %.0.i = phi i64 [ 1, %5 ], [ 2, %7 ], [ 4, %9 ], [ %..i, %11 ]
  %13 = tail call i32 @WPACKET_quic_write_vlint(ptr noundef %0, i64 noundef %.0.i) #12
  %.not6 = icmp eq i32 %13, 0
  br i1 %.not6, label %16, label %14

14:                                               ; preds = %ossl_quic_vlint_encode_len.exit
  %15 = tail call i32 @WPACKET_quic_write_vlint(ptr noundef %0, i64 noundef %2) #12
  %.not7 = icmp ne i32 %15, 0
  %spec.select = zext i1 %.not7 to i32
  br label %16

16:                                               ; preds = %14, %3, %ossl_quic_vlint_encode_len.exit
  %.0 = phi i32 [ 0, %ossl_quic_vlint_encode_len.exit ], [ 0, %3 ], [ %spec.select, %14 ]
  ret i32 %.0
}